target datalayout = "e-m:e-p270:32:32-p271:32:32-p272:64:64-i64:64-i128:128-f80:128-n8:16:32:64-S128"
target triple = "x86_64-pc-linux-gnu"

%"struct.duckdb_miniz::mz_zip_archive" = type { i64, i64, i32, i32, i32, i32, i64, ptr, ptr, ptr, ptr, ptr, ptr, ptr, ptr, ptr }
%"struct.duckdb_miniz::mz_zip_internal_state_tag" = type { %"struct.duckdb_miniz::mz_zip_array", %"struct.duckdb_miniz::mz_zip_array", %"struct.duckdb_miniz::mz_zip_array", i32, i32, i32, ptr, i64, ptr, i64, i64 }
%"struct.duckdb_miniz::mz_zip_array" = type { ptr, i64, i64, i32 }

; Function Attrs: alwaysinline mustprogress nounwind uwtable
define internal noundef i32 @_ZN12duckdb_minizL16mz_zip_set_errorEPNS_14mz_zip_archiveENS_12mz_zip_errorE(ptr noundef %0, i32 noundef %1) #8 {
  %3 = alloca ptr, align 8
  %4 = alloca i32, align 4
  store ptr %0, ptr %3, align 8, !tbaa !19
  store i32 %1, ptr %4, align 4, !tbaa !242
  %5 = load ptr, ptr %3, align 8, !tbaa !19
  %6 = icmp ne ptr %5, null
  br i1 %6, label %7, label %11

7:                                                ; preds = %2
  %8 = load i32, ptr %4, align 4, !tbaa !242
  %9 = load ptr, ptr %3, align 8, !tbaa !19
  %10 = getelementptr inbounds nuw %"struct.duckdb_miniz::mz_zip_archive", ptr %9, i32 0, i32 5
  store i32 %8, ptr %10, align 4, !tbaa !236
  br label %11

11:                                               ; preds = %7, %2
  ret i32 0
}

; Function Attrs: alwaysinline mustprogress uwtable
define internal void @_ZN12duckdb_minizL18mz_zip_array_clearEPNS_14mz_zip_archiveEPNS_12mz_zip_arrayE(ptr noundef %0, ptr noundef %1) #9 {
  %3 = alloca ptr, align 8
  %4 = alloca ptr, align 8
  store ptr %0, ptr %3, align 8, !tbaa !19
  store ptr %1, ptr %4, align 8, !tbaa !19
  %5 = load ptr, ptr %3, align 8, !tbaa !19
  %6 = getelementptr inbounds nuw %"struct.duckdb_miniz::mz_zip_archive", ptr %5, i32 0, i32 8
  %7 = load ptr, ptr %6, align 8, !tbaa !234
  %8 = load ptr, ptr %3, align 8, !tbaa !19
  %9 = getelementptr inbounds nuw %"struct.duckdb_miniz::mz_zip_archive", ptr %8, i32 0, i32 10
  %10 = load ptr, ptr %9, align 8, !tbaa !238
  %11 = load ptr, ptr %4, align 8, !tbaa !19
  %12 = getelementptr inbounds nuw %"struct.duckdb_miniz::mz_zip_array", ptr %11, i32 0, i32 0
  %13 = load ptr, ptr %12, align 8, !tbaa !305
  call void %7(ptr noundef %10, ptr noundef %13)
  %14 = load ptr, ptr %4, align 8, !tbaa !19
  call void @llvm.memset.p0.i64(ptr align 8 %14, i8 0, i64 32, i1 false)
  ret void
}

; Function Attrs: mustprogress uwtable
define internal noundef i32 @_ZN12duckdb_minizL26mz_zip_writer_end_internalEPNS_14mz_zip_archiveEi(ptr noundef %0, i32 noundef %1) #5 {
  %3 = alloca i32, align 4
  %4 = alloca ptr, align 8
  %5 = alloca i32, align 4
  %6 = alloca ptr, align 8
  %7 = alloca i32, align 4
  %8 = alloca i32, align 4
  store ptr %0, ptr %4, align 8, !tbaa !19
  store i32 %1, ptr %5, align 4, !tbaa !10
  call void @llvm.lifetime.start.p0(i64 8, ptr %6) #11
  call void @llvm.lifetime.start.p0(i64 4, ptr %7) #11
  store i32 1, ptr %7, align 4, !tbaa !10
  %9 = load ptr, ptr %4, align 8, !tbaa !19
  %10 = icmp ne ptr %9, null
  br i1 %10, label %11, label %36

11:                                               ; preds = %2
  %12 = load ptr, ptr %4, align 8, !tbaa !19
  %13 = getelementptr inbounds nuw %"struct.duckdb_miniz::mz_zip_archive", ptr %12, i32 0, i32 15
  %14 = load ptr, ptr %13, align 8, !tbaa !227
  %15 = icmp ne ptr %14, null
  br i1 %15, label %16, label %36

16:                                               ; preds = %11
  %17 = load ptr, ptr %4, align 8, !tbaa !19
  %18 = getelementptr inbounds nuw %"struct.duckdb_miniz::mz_zip_archive", ptr %17, i32 0, i32 7
  %19 = load ptr, ptr %18, align 8, !tbaa !233
  %20 = icmp ne ptr %19, null
  br i1 %20, label %21, label %36

21:                                               ; preds = %16
  %22 = load ptr, ptr %4, align 8, !tbaa !19
  %23 = getelementptr inbounds nuw %"struct.duckdb_miniz::mz_zip_archive", ptr %22, i32 0, i32 8
  %24 = load ptr, ptr %23, align 8, !tbaa !234
  %25 = icmp ne ptr %24, null
  br i1 %25, label %26, label %36

26:                                               ; preds = %21
  %27 = load ptr, ptr %4, align 8, !tbaa !19
  %28 = getelementptr inbounds nuw %"struct.duckdb_miniz::mz_zip_archive", ptr %27, i32 0, i32 3
  %29 = load i32, ptr %28, align 4, !tbaa !235
  %30 = icmp ne i32 %29, 2
  br i1 %30, label %31, label %43

31:                                               ; preds = %26
  %32 = load ptr, ptr %4, align 8, !tbaa !19
  %33 = getelementptr inbounds nuw %"struct.duckdb_miniz::mz_zip_archive", ptr %32, i32 0, i32 3
  %34 = load i32, ptr %33, align 4, !tbaa !235
  %35 = icmp ne i32 %34, 3
  br i1 %35, label %36, label %43

36:                                               ; preds = %31, %21, %16, %11, %2
  %37 = load i32, ptr %5, align 4, !tbaa !10
  %38 = icmp ne i32 %37, 0
  br i1 %38, label %39, label %42

39:                                               ; preds = %36
  %40 = load ptr, ptr %4, align 8, !tbaa !19
  %41 = call noundef i32 @_ZN12duckdb_minizL16mz_zip_set_errorEPNS_14mz_zip_archiveENS_12mz_zip_errorE(ptr noundef %40, i32 noundef 24)
  br label %42

42:                                               ; preds = %39, %36
  store i32 0, ptr %3, align 4
  store i32 1, ptr %8, align 4
  br label %90

43:                                               ; preds = %31, %26
  %44 = load ptr, ptr %4, align 8, !tbaa !19
  %45 = getelementptr inbounds nuw %"struct.duckdb_miniz::mz_zip_archive", ptr %44, i32 0, i32 15
  %46 = load ptr, ptr %45, align 8, !tbaa !227
  store ptr %46, ptr %6, align 8, !tbaa !237
  %47 = load ptr, ptr %4, align 8, !tbaa !19
  %48 = getelementptr inbounds nuw %"struct.duckdb_miniz::mz_zip_archive", ptr %47, i32 0, i32 15
  store ptr null, ptr %48, align 8, !tbaa !227
  %49 = load ptr, ptr %4, align 8, !tbaa !19
  %50 = load ptr, ptr %6, align 8, !tbaa !237
  %51 = getelementptr inbounds nuw %"struct.duckdb_miniz::mz_zip_internal_state_tag", ptr %50, i32 0, i32 0
  call void @_ZN12duckdb_minizL18mz_zip_array_clearEPNS_14mz_zip_archiveEPNS_12mz_zip_arrayE(ptr noundef %49, ptr noundef %51)
  %52 = load ptr, ptr %4, align 8, !tbaa !19
  %53 = load ptr, ptr %6, align 8, !tbaa !237
  %54 = getelementptr inbounds nuw %"struct.duckdb_miniz::mz_zip_internal_state_tag", ptr %53, i32 0, i32 1
  call void @_ZN12duckdb_minizL18mz_zip_array_clearEPNS_14mz_zip_archiveEPNS_12mz_zip_arrayE(ptr noundef %52, ptr noundef %54)
  %55 = load ptr, ptr %4, align 8, !tbaa !19
  %56 = load ptr, ptr %6, align 8, !tbaa !237
  %57 = getelementptr inbounds nuw %"struct.duckdb_miniz::mz_zip_internal_state_tag", ptr %56, i32 0, i32 2
  call void @_ZN12duckdb_minizL18mz_zip_array_clearEPNS_14mz_zip_archiveEPNS_12mz_zip_arrayE(ptr noundef %55, ptr noundef %57)
  %58 = load ptr, ptr %4, align 8, !tbaa !19
  %59 = getelementptr inbounds nuw %"struct.duckdb_miniz::mz_zip_archive", ptr %58, i32 0, i32 12
  %60 = load ptr, ptr %59, align 8, !tbaa !320
  %61 = icmp eq ptr %60, @_ZN12duckdb_minizL22mz_zip_heap_write_funcEPvmPKvm
  br i1 %61, label %62, label %79

62:                                               ; preds = %43
  %63 = load ptr, ptr %6, align 8, !tbaa !237
  %64 = getelementptr inbounds nuw %"struct.duckdb_miniz::mz_zip_internal_state_tag", ptr %63, i32 0, i32 8
  %65 = load ptr, ptr %64, align 8, !tbaa !261
  %66 = icmp ne ptr %65, null
  br i1 %66, label %67, label %79

67:                                               ; preds = %62
  %68 = load ptr, ptr %4, align 8, !tbaa !19
  %69 = getelementptr inbounds nuw %"struct.duckdb_miniz::mz_zip_archive", ptr %68, i32 0, i32 8
  %70 = load ptr, ptr %69, align 8, !tbaa !234
  %71 = load ptr, ptr %4, align 8, !tbaa !19
  %72 = getelementptr inbounds nuw %"struct.duckdb_miniz::mz_zip_archive", ptr %71, i32 0, i32 10
  %73 = load ptr, ptr %72, align 8, !tbaa !238
  %74 = load ptr, ptr %6, align 8, !tbaa !237
  %75 = getelementptr inbounds nuw %"struct.duckdb_miniz::mz_zip_internal_state_tag", ptr %74, i32 0, i32 8
  %76 = load ptr, ptr %75, align 8, !tbaa !261
  call void %70(ptr noundef %73, ptr noundef %76)
  %77 = load ptr, ptr %6, align 8, !tbaa !237
  %78 = getelementptr inbounds nuw %"struct.duckdb_miniz::mz_zip_internal_state_tag", ptr %77, i32 0, i32 8
  store ptr null, ptr %78, align 8, !tbaa !261
  br label %79

79:                                               ; preds = %67, %62, %43
  %80 = load ptr, ptr %4, align 8, !tbaa !19
  %81 = getelementptr inbounds nuw %"struct.duckdb_miniz::mz_zip_archive", ptr %80, i32 0, i32 8
  %82 = load ptr, ptr %81, align 8, !tbaa !234
  %83 = load ptr, ptr %4, align 8, !tbaa !19
  %84 = getelementptr inbounds nuw %"struct.duckdb_miniz::mz_zip_archive", ptr %83, i32 0, i32 10
  %85 = load ptr, ptr %84, align 8, !tbaa !238
  %86 = load ptr, ptr %6, align 8, !tbaa !237
  call void %82(ptr noundef %85, ptr noundef %86)
  %87 = load ptr, ptr %4, align 8, !tbaa !19
  %88 = getelementptr inbounds nuw %"struct.duckdb_miniz::mz_zip_archive", ptr %87, i32 0, i32 3
  store i32 0, ptr %88, align 4, !tbaa !235
  %89 = load i32, ptr %7, align 4, !tbaa !10
  store i32 %89, ptr %3, align 4
  store i32 1, ptr %8, align 4
  br label %90

90:                                               ; preds = %79, %42
  call void @llvm.lifetime.end.p0(i64 4, ptr %7) #11
  call void @llvm.lifetime.end.p0(i64 8, ptr %6) #11
  %91 = load i32, ptr %3, align 4
  ret i32 %91
}

; Function Attrs: mustprogress uwtable
define internal noundef i32 @_ZN12duckdb_minizL26mz_zip_reader_end_internalEPNS_14mz_zip_archiveEi(ptr noundef %0, i32 noundef %1) #5 {
  %3 = alloca i32, align 4
  %4 = alloca ptr, align 8
  %5 = alloca i32, align 4
  %6 = alloca i32, align 4
  %7 = alloca i32, align 4
  %8 = alloca ptr, align 8
  store ptr %0, ptr %4, align 8, !tbaa !19
  store i32 %1, ptr %5, align 4, !tbaa !10
  call void @llvm.lifetime.start.p0(i64 4, ptr %6) #11
  store i32 1, ptr %6, align 4, !tbaa !10
  %9 = load ptr, ptr %4, align 8, !tbaa !19
  %10 = icmp ne ptr %9, null
  br i1 %10, label %12, label %11

11:                                               ; preds = %2
  store i32 0, ptr %3, align 4
  store i32 1, ptr %7, align 4
  br label %70

12:                                               ; preds = %2
  %13 = load ptr, ptr %4, align 8, !tbaa !19
  %14 = getelementptr inbounds nuw %"struct.duckdb_miniz::mz_zip_archive", ptr %13, i32 0, i32 15
  %15 = load ptr, ptr %14, align 8, !tbaa !227
  %16 = icmp ne ptr %15, null
  br i1 %16, label %17, label %32

17:                                               ; preds = %12
  %18 = load ptr, ptr %4, align 8, !tbaa !19
  %19 = getelementptr inbounds nuw %"struct.duckdb_miniz::mz_zip_archive", ptr %18, i32 0, i32 7
  %20 = load ptr, ptr %19, align 8, !tbaa !233
  %21 = icmp ne ptr %20, null
  br i1 %21, label %22, label %32

22:                                               ; preds = %17
  %23 = load ptr, ptr %4, align 8, !tbaa !19
  %24 = getelementptr inbounds nuw %"struct.duckdb_miniz::mz_zip_archive", ptr %23, i32 0, i32 8
  %25 = load ptr, ptr %24, align 8, !tbaa !234
  %26 = icmp ne ptr %25, null
  br i1 %26, label %27, label %32

27:                                               ; preds = %22
  %28 = load ptr, ptr %4, align 8, !tbaa !19
  %29 = getelementptr inbounds nuw %"struct.duckdb_miniz::mz_zip_archive", ptr %28, i32 0, i32 3
  %30 = load i32, ptr %29, align 4, !tbaa !235
  %31 = icmp ne i32 %30, 1
  br i1 %31, label %32, label %39

32:                                               ; preds = %27, %22, %17, %12
  %33 = load i32, ptr %5, align 4, !tbaa !10
  %34 = icmp ne i32 %33, 0
  br i1 %34, label %35, label %38

35:                                               ; preds = %32
  %36 = load ptr, ptr %4, align 8, !tbaa !19
  %37 = getelementptr inbounds nuw %"struct.duckdb_miniz::mz_zip_archive", ptr %36, i32 0, i32 5
  store i32 24, ptr %37, align 4, !tbaa !236
  br label %38

38:                                               ; preds = %35, %32
  store i32 0, ptr %3, align 4
  store i32 1, ptr %7, align 4
  br label %70

39:                                               ; preds = %27
  %40 = load ptr, ptr %4, align 8, !tbaa !19
  %41 = getelementptr inbounds nuw %"struct.duckdb_miniz::mz_zip_archive", ptr %40, i32 0, i32 15
  %42 = load ptr, ptr %41, align 8, !tbaa !227
  %43 = icmp ne ptr %42, null
  br i1 %43, label %44, label %66

44:                                               ; preds = %39
  call void @llvm.lifetime.start.p0(i64 8, ptr %8) #11
  %45 = load ptr, ptr %4, align 8, !tbaa !19
  %46 = getelementptr inbounds nuw %"struct.duckdb_miniz::mz_zip_archive", ptr %45, i32 0, i32 15
  %47 = load ptr, ptr %46, align 8, !tbaa !227
  store ptr %47, ptr %8, align 8, !tbaa !237
  %48 = load ptr, ptr %4, align 8, !tbaa !19
  %49 = getelementptr inbounds nuw %"struct.duckdb_miniz::mz_zip_archive", ptr %48, i32 0, i32 15
  store ptr null, ptr %49, align 8, !tbaa !227
  %50 = load ptr, ptr %4, align 8, !tbaa !19
  %51 = load ptr, ptr %8, align 8, !tbaa !237
  %52 = getelementptr inbounds nuw %"struct.duckdb_miniz::mz_zip_internal_state_tag", ptr %51, i32 0, i32 0
  call void @_ZN12duckdb_minizL18mz_zip_array_clearEPNS_14mz_zip_archiveEPNS_12mz_zip_arrayE(ptr noundef %50, ptr noundef %52)
  %53 = load ptr, ptr %4, align 8, !tbaa !19
  %54 = load ptr, ptr %8, align 8, !tbaa !237
  %55 = getelementptr inbounds nuw %"struct.duckdb_miniz::mz_zip_internal_state_tag", ptr %54, i32 0, i32 1
  call void @_ZN12duckdb_minizL18mz_zip_array_clearEPNS_14mz_zip_archiveEPNS_12mz_zip_arrayE(ptr noundef %53, ptr noundef %55)
  %56 = load ptr, ptr %4, align 8, !tbaa !19
  %57 = load ptr, ptr %8, align 8, !tbaa !237
  %58 = getelementptr inbounds nuw %"struct.duckdb_miniz::mz_zip_internal_state_tag", ptr %57, i32 0, i32 2
  call void @_ZN12duckdb_minizL18mz_zip_array_clearEPNS_14mz_zip_archiveEPNS_12mz_zip_arrayE(ptr noundef %56, ptr noundef %58)
  %59 = load ptr, ptr %4, align 8, !tbaa !19
  %60 = getelementptr inbounds nuw %"struct.duckdb_miniz::mz_zip_archive", ptr %59, i32 0, i32 8
  %61 = load ptr, ptr %60, align 8, !tbaa !234
  %62 = load ptr, ptr %4, align 8, !tbaa !19
  %63 = getelementptr inbounds nuw %"struct.duckdb_miniz::mz_zip_archive", ptr %62, i32 0, i32 10
  %64 = load ptr, ptr %63, align 8, !tbaa !238
  %65 = load ptr, ptr %8, align 8, !tbaa !237
  call void %61(ptr noundef %64, ptr noundef %65)
  call void @llvm.lifetime.end.p0(i64 8, ptr %8) #11
  br label %66

66:                                               ; preds = %44, %39
  %67 = load ptr, ptr %4, align 8, !tbaa !19
  %68 = getelementptr inbounds nuw %"struct.duckdb_miniz::mz_zip_archive", ptr %67, i32 0, i32 3
  store i32 0, ptr %68, align 4, !tbaa !235
  %69 = load i32, ptr %6, align 4, !tbaa !10
  store i32 %69, ptr %3, align 4
  store i32 1, ptr %7, align 4
  br label %70

70:                                               ; preds = %66, %38, %11
  call void @llvm.lifetime.end.p0(i64 4, ptr %6) #11
  %71 = load i32, ptr %3, align 4
  ret i32 %71
}

; Function Attrs: mustprogress uwtable
define noundef i32 @_ZN12duckdb_miniz17mz_zip_writer_endEPNS_14mz_zip_archiveE(ptr noundef %0) #5 {
  %2 = alloca ptr, align 8
  store ptr %0, ptr %2, align 8, !tbaa !19
  %3 = load ptr, ptr %2, align 8, !tbaa !19
  %4 = call noundef i32 @_ZN12duckdb_minizL26mz_zip_writer_end_internalEPNS_14mz_zip_archiveEi(ptr noundef %3, i32 noundef 1)
  ret i32 %4
}

; Function Attrs: mustprogress uwtable
define noundef i32 @_ZN12duckdb_miniz17mz_zip_reader_endEPNS_14mz_zip_archiveE(ptr noundef %0) #5 {
  %2 = alloca ptr, align 8
  store ptr %0, ptr %2, align 8, !tbaa !19
  %3 = load ptr, ptr %2, align 8, !tbaa !19
  %4 = call noundef i32 @_ZN12duckdb_minizL26mz_zip_reader_end_internalEPNS_14mz_zip_archiveEi(ptr noundef %3, i32 noundef 1)
  ret i32 %4
}

; Function Attrs: mustprogress uwtable
define noundef i32 @_ZN12duckdb_miniz10mz_zip_endEPNS_14mz_zip_archiveE(ptr noundef %0) #5 {
  %2 = alloca i32, align 4
  %3 = alloca ptr, align 8
  store ptr %0, ptr %3, align 8, !tbaa !19
  %4 = load ptr, ptr %3, align 8, !tbaa !19
  %5 = icmp ne ptr %4, null
  br i1 %5, label %7, label %6

6:                                                ; preds = %1
  store i32 0, ptr %2, align 4
  br label %30

7:                                                ; preds = %1
  %8 = load ptr, ptr %3, align 8, !tbaa !19
  %9 = getelementptr inbounds nuw %"struct.duckdb_miniz::mz_zip_archive", ptr %8, i32 0, i32 3
  %10 = load i32, ptr %9, align 4, !tbaa !235
  %11 = icmp eq i32 %10, 1
  br i1 %11, label %12, label %15

12:                                               ; preds = %7
  %13 = load ptr, ptr %3, align 8, !tbaa !19
  %14 = call noundef i32 @_ZN12duckdb_miniz17mz_zip_reader_endEPNS_14mz_zip_archiveE(ptr noundef %13)
  store i32 %14, ptr %2, align 4
  br label %30

15:                                               ; preds = %7
  %16 = load ptr, ptr %3, align 8, !tbaa !19
  %17 = getelementptr inbounds nuw %"struct.duckdb_miniz::mz_zip_archive", ptr %16, i32 0, i32 3
  %18 = load i32, ptr %17, align 4, !tbaa !235
  %19 = icmp eq i32 %18, 2
  br i1 %19, label %25, label %20

20:                                               ; preds = %15
  %21 = load ptr, ptr %3, align 8, !tbaa !19
  %22 = getelementptr inbounds nuw %"struct.duckdb_miniz::mz_zip_archive", ptr %21, i32 0, i32 3
  %23 = load i32, ptr %22, align 4, !tbaa !235
  %24 = icmp eq i32 %23, 3
  br i1 %24, label %25, label %28

25:                                               ; preds = %20, %15
  %26 = load ptr, ptr %3, align 8, !tbaa !19
  %27 = call noundef i32 @_ZN12duckdb_miniz17mz_zip_writer_endEPNS_14mz_zip_archiveE(ptr noundef %26)
  store i32 %27, ptr %2, align 4
  br label %30

28:                                               ; preds = %20
  br label %29

29:                                               ; preds = %28
  store i32 0, ptr %2, align 4
  br label %30

30:                                               ; preds = %29, %25, %12, %6
  %31 = load i32, ptr %2, align 4
  ret i32 %31
}