; Function Attrs: mustprogress uwtable
define noundef range(i32 0, 2) i32 @_ZN12duckdb_miniz10mz_zip_endEPNS_14mz_zip_archiveE(ptr noundef captures(address_is_null) %0) local_unnamed_addr #8 {
  %.not = icmp eq ptr %0, null
  br i1 %.not, label %_ZN12duckdb_miniz17mz_zip_reader_endEPNS_14mz_zip_archiveE.exit, label %2

2:                                                ; preds = %1
  %3 = getelementptr inbounds nuw i8, ptr %0, i64 20
  %4 = load i32, ptr %3, align 4, !tbaa !212
  switch i32 %4, label %_ZN12duckdb_miniz17mz_zip_reader_endEPNS_14mz_zip_archiveE.exit [
    i32 1, label %5
    i32 2, label %30
    i32 3, label %30
  ]

5:                                                ; preds = %2
  %6 = getelementptr inbounds nuw i8, ptr %0, i64 104
  %7 = load ptr, ptr %6, align 8, !tbaa !204
  %.not23.i.i = icmp eq ptr %7, null
  br i1 %.not23.i.i, label %14, label %8

8:                                                ; preds = %5
  %9 = getelementptr inbounds nuw i8, ptr %0, i64 40
  %10 = load ptr, ptr %9, align 8, !tbaa !210
  %.not24.i.i = icmp eq ptr %10, null
  br i1 %.not24.i.i, label %14, label %11

11:                                               ; preds = %8
  %12 = getelementptr inbounds nuw i8, ptr %0, i64 48
  %13 = load ptr, ptr %12, align 8, !tbaa !211
  %.not25.i.i = icmp eq ptr %13, null
  br i1 %.not25.i.i, label %14, label %16

14:                                               ; preds = %11, %8, %5
  %15 = getelementptr inbounds nuw i8, ptr %0, i64 28
  store i32 24, ptr %15, align 4, !tbaa !213
  br label %_ZN12duckdb_miniz17mz_zip_reader_endEPNS_14mz_zip_archiveE.exit

16:                                               ; preds = %11
  store ptr null, ptr %6, align 8, !tbaa !204
  %17 = getelementptr inbounds nuw i8, ptr %0, i64 64
  %18 = load ptr, ptr %17, align 8, !tbaa !214
  %19 = load ptr, ptr %7, align 8, !tbaa !215
  tail call void %13(ptr noundef %18, ptr noundef %19)
  tail call void @llvm.memset.p0.i64(ptr noundef nonnull align 8 dereferenceable(32) %7, i8 0, i64 32, i1 false)
  %20 = getelementptr inbounds nuw i8, ptr %7, i64 32
  %21 = load ptr, ptr %12, align 8, !tbaa !211
  %22 = load ptr, ptr %17, align 8, !tbaa !214
  %23 = load ptr, ptr %20, align 8, !tbaa !215
  tail call void %21(ptr noundef %22, ptr noundef %23)
  tail call void @llvm.memset.p0.i64(ptr noundef nonnull align 8 dereferenceable(32) %20, i8 0, i64 32, i1 false)
  %24 = getelementptr inbounds nuw i8, ptr %7, i64 64
  %25 = load ptr, ptr %12, align 8, !tbaa !211
  %26 = load ptr, ptr %17, align 8, !tbaa !214
  %27 = load ptr, ptr %24, align 8, !tbaa !215
  tail call void %25(ptr noundef %26, ptr noundef %27)
  tail call void @llvm.memset.p0.i64(ptr noundef nonnull align 8 dereferenceable(32) %24, i8 0, i64 32, i1 false)
  %28 = load ptr, ptr %12, align 8, !tbaa !211
  %29 = load ptr, ptr %17, align 8, !tbaa !214
  tail call void %28(ptr noundef %29, ptr noundef nonnull %7)
  store i32 0, ptr %3, align 4, !tbaa !212
  br label %_ZN12duckdb_miniz17mz_zip_reader_endEPNS_14mz_zip_archiveE.exit

30:                                               ; preds = %2, %2
  %31 = getelementptr inbounds nuw i8, ptr %0, i64 104
  %32 = load ptr, ptr %31, align 8, !tbaa !204
  %.not30.i.i = icmp eq ptr %32, null
  br i1 %.not30.i.i, label %54, label %33

33:                                               ; preds = %30
  %34 = getelementptr inbounds nuw i8, ptr %0, i64 40
  %35 = load ptr, ptr %34, align 8, !tbaa !210
  %.not31.i.i = icmp eq ptr %35, null
  br i1 %.not31.i.i, label %54, label %36

36:                                               ; preds = %33
  %37 = getelementptr inbounds nuw i8, ptr %0, i64 48
  %38 = load ptr, ptr %37, align 8, !tbaa !211
  %.not32.i.i = icmp eq ptr %38, null
  br i1 %.not32.i.i, label %54, label %39

39:                                               ; preds = %36
  store ptr null, ptr %31, align 8, !tbaa !204
  %40 = getelementptr inbounds nuw i8, ptr %0, i64 64
  %41 = load ptr, ptr %40, align 8, !tbaa !214
  %42 = load ptr, ptr %32, align 8, !tbaa !215
  tail call void %38(ptr noundef %41, ptr noundef %42)
  tail call void @llvm.memset.p0.i64(ptr noundef nonnull align 8 dereferenceable(32) %32, i8 0, i64 32, i1 false)
  %43 = getelementptr inbounds nuw i8, ptr %32, i64 32
  %44 = load ptr, ptr %37, align 8, !tbaa !211
  %45 = load ptr, ptr %40, align 8, !tbaa !214
  %46 = load ptr, ptr %43, align 8, !tbaa !215
  tail call void %44(ptr noundef %45, ptr noundef %46)
  tail call void @llvm.memset.p0.i64(ptr noundef nonnull align 8 dereferenceable(32) %43, i8 0, i64 32, i1 false)
  %47 = getelementptr inbounds nuw i8, ptr %32, i64 64
  %48 = load ptr, ptr %37, align 8, !tbaa !211
  %49 = load ptr, ptr %40, align 8, !tbaa !214
  %50 = load ptr, ptr %47, align 8, !tbaa !215
  tail call void %48(ptr noundef %49, ptr noundef %50)
  tail call void @llvm.memset.p0.i64(ptr noundef nonnull align 8 dereferenceable(32) %47, i8 0, i64 32, i1 false)
  %51 = getelementptr inbounds nuw i8, ptr %0, i64 80
  %52 = load ptr, ptr %51, align 8, !tbaa !294
  %53 = icmp eq ptr %52, @_ZN12duckdb_minizL22mz_zip_heap_write_funcEPvmPKvm
  br i1 %53, label %56, label %62

54:                                               ; preds = %36, %33, %30
  %55 = getelementptr inbounds nuw i8, ptr %0, i64 28
  store i32 24, ptr %55, align 4, !tbaa !213
  br label %_ZN12duckdb_miniz17mz_zip_reader_endEPNS_14mz_zip_archiveE.exit

56:                                               ; preds = %39
  %57 = getelementptr inbounds nuw i8, ptr %32, i64 128
  %58 = load ptr, ptr %57, align 8, !tbaa !241
  %.not35.i.i = icmp eq ptr %58, null
  br i1 %.not35.i.i, label %62, label %59

59:                                               ; preds = %56
  %60 = load ptr, ptr %37, align 8, !tbaa !211
  %61 = load ptr, ptr %40, align 8, !tbaa !214
  tail call void %60(ptr noundef %61, ptr noundef nonnull %58)
  store ptr null, ptr %57, align 8, !tbaa !241
  br label %62

62:                                               ; preds = %59, %56, %39
  %63 = load ptr, ptr %37, align 8, !tbaa !211
  %64 = load ptr, ptr %40, align 8, !tbaa !214
  tail call void %63(ptr noundef %64, ptr noundef nonnull %32)
  store i32 0, ptr %3, align 4, !tbaa !212
  br label %_ZN12duckdb_miniz17mz_zip_reader_endEPNS_14mz_zip_archiveE.exit

_ZN12duckdb_miniz17mz_zip_reader_endEPNS_14mz_zip_archiveE.exit: ; preds = %62, %54, %16, %14, %2, %1
  %.0 = phi i32 [ 0, %1 ], [ 0, %2 ], [ 1, %16 ], [ 0, %14 ], [ 1, %62 ], [ 0, %54 ]
  ret i32 %.0
}